target datalayout = "e-m:e-p270:32:32-p271:32:32-p272:64:64-i64:64-i128:128-f80:128-n8:16:32:64-S128"
target triple = "x86_64-pc-linux-gnu"

%class.ciConstantPoolCache = type { ptr, ptr }
%class.GrowableArrayView = type { %class.GrowableArrayBase, ptr }
%class.GrowableArrayBase = type { i32, i32 }
%class.GrowableArrayView.2 = type { %class.GrowableArrayBase, ptr }

; Function Attrs: mustprogress nounwind uwtable
define hidden noundef i32 @_ZN19ciConstantPoolCache11key_compareERKiS1_(ptr noundef nonnull align 4 dereferenceable(4) %0, ptr noundef nonnull align 4 dereferenceable(4) %1) #1 align 2 {
  %3 = alloca i32, align 4
  %4 = alloca ptr, align 8
  %5 = alloca ptr, align 8
  store ptr %0, ptr %4, align 8
  store ptr %1, ptr %5, align 8
  %6 = load ptr, ptr %4, align 8
  %7 = load i32, ptr %6, align 4
  %8 = load ptr, ptr %5, align 8
  %9 = load i32, ptr %8, align 4
  %10 = icmp slt i32 %7, %9
  br i1 %10, label %11, label %12

11:                                               ; preds = %2
  store i32 -1, ptr %3, align 4
  br label %20

12:                                               ; preds = %2
  %13 = load ptr, ptr %4, align 8
  %14 = load i32, ptr %13, align 4
  %15 = load ptr, ptr %5, align 8
  %16 = load i32, ptr %15, align 4
  %17 = icmp sgt i32 %14, %16
  br i1 %17, label %18, label %19

18:                                               ; preds = %12
  store i32 1, ptr %3, align 4
  br label %20

19:                                               ; preds = %12
  store i32 0, ptr %3, align 4
  br label %20

20:                                               ; preds = %19, %18, %11
  %21 = load i32, ptr %3, align 4
  ret i32 %21
}

; Function Attrs: mustprogress nounwind uwtable
define linkonce_odr hidden noundef nonnull align 4 dereferenceable(4) ptr @_ZNK17GrowableArrayViewIiE2atEi(ptr noundef nonnull align 8 dereferenceable(16) %0, i32 noundef %1) #1 comdat align 2 {
  %3 = alloca ptr, align 8
  %4 = alloca i32, align 4
  store ptr %0, ptr %3, align 8
  store i32 %1, ptr %4, align 4
  %5 = load ptr, ptr %3, align 8
  %6 = getelementptr inbounds %class.GrowableArrayView.2, ptr %5, i32 0, i32 1
  %7 = load ptr, ptr %6, align 8
  %8 = load i32, ptr %4, align 4
  %9 = sext i32 %8 to i64
  %10 = getelementptr inbounds i32, ptr %7, i64 %9
  ret ptr %10
}

; Function Attrs: mustprogress nounwind uwtable
define linkonce_odr hidden noundef i32 @_ZNK17GrowableArrayBase6lengthEv(ptr noundef nonnull align 4 dereferenceable(8) %0) #1 comdat align 2 {
  %2 = alloca ptr, align 8
  store ptr %0, ptr %2, align 8
  %3 = load ptr, ptr %2, align 8
  %4 = getelementptr inbounds %class.GrowableArrayBase, ptr %3, i32 0, i32 0
  %5 = load i32, ptr %4, align 4
  ret i32 %5
}

; Function Attrs: mustprogress nounwind uwtable
define linkonce_odr hidden noundef nonnull align 8 dereferenceable(8) ptr @_ZN17GrowableArrayViewIPvE2atEi(ptr noundef nonnull align 8 dereferenceable(16) %0, i32 noundef %1) #1 comdat align 2 {
  %3 = alloca ptr, align 8
  %4 = alloca i32, align 4
  store ptr %0, ptr %3, align 8
  store i32 %1, ptr %4, align 4
  %5 = load ptr, ptr %3, align 8
  %6 = getelementptr inbounds %class.GrowableArrayView, ptr %5, i32 0, i32 1
  %7 = load ptr, ptr %6, align 8
  %8 = load i32, ptr %4, align 4
  %9 = sext i32 %8 to i64
  %10 = getelementptr inbounds ptr, ptr %7, i64 %9
  ret ptr %10
}

; Function Attrs: mustprogress nounwind uwtable
define linkonce_odr hidden noundef i32 @_ZNK17GrowableArrayViewIiE11find_sortedIiTnPFiRKT_RKiEXadL_ZN19ciConstantPoolCache11key_compareES6_S6_EEEEiS4_Rb(ptr noundef nonnull align 8 dereferenceable(16) %0, ptr noundef nonnull align 4 dereferenceable(4) %1, ptr noundef nonnull align 1 dereferenceable(1) %2) #1 comdat align 2 {
  %4 = alloca i32, align 4
  %5 = alloca ptr, align 8
  %6 = alloca ptr, align 8
  %7 = alloca ptr, align 8
  %8 = alloca i32, align 4
  %9 = alloca i32, align 4
  %10 = alloca i32, align 4
  %11 = alloca i32, align 4
  %12 = alloca i32, align 4
  store ptr %0, ptr %5, align 8
  store ptr %1, ptr %6, align 8
  store ptr %2, ptr %7, align 8
  %13 = load ptr, ptr %5, align 8
  %14 = load ptr, ptr %7, align 8
  store i8 0, ptr %14, align 1
  store i32 0, ptr %8, align 4
  %15 = call noundef i32 @_ZNK17GrowableArrayBase6lengthEv(ptr noundef nonnull align 4 dereferenceable(8) %13)
  %16 = sub nsw i32 %15, 1
  store i32 %16, ptr %9, align 4
  br label %17

17:                                               ; preds = %46, %3
  %18 = load i32, ptr %9, align 4
  %19 = load i32, ptr %8, align 4
  %20 = icmp sge i32 %18, %19
  br i1 %20, label %21, label %47

21:                                               ; preds = %17
  %22 = load i32, ptr %9, align 4
  %23 = load i32, ptr %8, align 4
  %24 = add i32 %22, %23
  %25 = udiv i32 %24, 2
  store i32 %25, ptr %10, align 4
  %26 = load i32, ptr %10, align 4
  %27 = call noundef nonnull align 4 dereferenceable(4) ptr @_ZNK17GrowableArrayViewIiE2atEi(ptr noundef nonnull align 8 dereferenceable(16) %13, i32 noundef %26)
  %28 = load i32, ptr %27, align 4
  store i32 %28, ptr %11, align 4
  %29 = load ptr, ptr %6, align 8
  %30 = call noundef i32 @_ZN19ciConstantPoolCache11key_compareERKiS1_(ptr noundef nonnull align 4 dereferenceable(4) %29, ptr noundef nonnull align 4 dereferenceable(4) %11)
  store i32 %30, ptr %12, align 4
  %31 = load i32, ptr %12, align 4
  %32 = icmp sgt i32 %31, 0
  br i1 %32, label %33, label %36

33:                                               ; preds = %21
  %34 = load i32, ptr %10, align 4
  %35 = add nsw i32 %34, 1
  store i32 %35, ptr %8, align 4
  br label %46

36:                                               ; preds = %21
  %37 = load i32, ptr %12, align 4
  %38 = icmp slt i32 %37, 0
  br i1 %38, label %39, label %42

39:                                               ; preds = %36
  %40 = load i32, ptr %10, align 4
  %41 = sub nsw i32 %40, 1
  store i32 %41, ptr %9, align 4
  br label %45

42:                                               ; preds = %36
  %43 = load ptr, ptr %7, align 8
  store i8 1, ptr %43, align 1
  %44 = load i32, ptr %10, align 4
  store i32 %44, ptr %4, align 4
  br label %49

45:                                               ; preds = %39
  br label %46

46:                                               ; preds = %45, %33
  br label %17, !llvm.loop !6

47:                                               ; preds = %17
  %48 = load i32, ptr %8, align 4
  store i32 %48, ptr %4, align 4
  br label %49

49:                                               ; preds = %47, %42
  %50 = load i32, ptr %4, align 4
  ret i32 %50
}

; Function Attrs: mustprogress nounwind uwtable
define hidden noundef ptr @_ZN19ciConstantPoolCache3getEi(ptr noundef nonnull align 8 dereferenceable(16) %0, i32 noundef %1) #1 align 2 {
  %3 = alloca ptr, align 8
  %4 = alloca ptr, align 8
  %5 = alloca i32, align 4
  %6 = alloca i8, align 1
  %7 = alloca i32, align 4
  store ptr %0, ptr %4, align 8
  store i32 %1, ptr %5, align 4
  %8 = load ptr, ptr %4, align 8
  store i8 0, ptr %6, align 1
  %9 = getelementptr inbounds %class.ciConstantPoolCache, ptr %8, i32 0, i32 0
  %10 = load ptr, ptr %9, align 8
  %11 = call noundef i32 @_ZNK17GrowableArrayViewIiE11find_sortedIiTnPFiRKT_RKiEXadL_ZN19ciConstantPoolCache11key_compareES6_S6_EEEEiS4_Rb(ptr noundef nonnull align 8 dereferenceable(16) %10, ptr noundef nonnull align 4 dereferenceable(4) %5, ptr noundef nonnull align 1 dereferenceable(1) %6)
  store i32 %11, ptr %7, align 4
  %12 = load i8, ptr %6, align 1
  %13 = trunc i8 %12 to i1
  br i1 %13, label %15, label %14

14:                                               ; preds = %2
  store ptr null, ptr %3, align 8
  br label %21

15:                                               ; preds = %2
  %16 = getelementptr inbounds %class.ciConstantPoolCache, ptr %8, i32 0, i32 1
  %17 = load ptr, ptr %16, align 8
  %18 = load i32, ptr %7, align 4
  %19 = call noundef nonnull align 8 dereferenceable(8) ptr @_ZN17GrowableArrayViewIPvE2atEi(ptr noundef nonnull align 8 dereferenceable(16) %17, i32 noundef %18)
  %20 = load ptr, ptr %19, align 8
  store ptr %20, ptr %3, align 8
  br label %21

21:                                               ; preds = %15, %14
  %22 = load ptr, ptr %3, align 8
  ret ptr %22
}