; Function Attrs: mustprogress nofree norecurse nosync nounwind willreturn memory(read, inaccessiblemem: none) uwtable
define hidden noundef ptr @_ZN19ciConstantPoolCache3getEi(ptr nocapture noundef nonnull readonly align 8 dereferenceable(16) %0, i32 noundef %1) local_unnamed_addr #3 align 2 {
  %3 = load ptr, ptr %0, align 8
  %4 = load i32, ptr %3, align 4
  %.not21.i = icmp slt i32 %4, 1
  br i1 %.not21.i, label %_ZNK17GrowableArrayViewIiE11find_sortedIiTnPFiRKT_RKiEXadL_ZN19ciConstantPoolCache11key_compareES6_S6_EEEEiS4_Rb.exit.thread, label %.lr.ph.i

.lr.ph.i:                                         ; preds = %2
  %5 = add nsw i32 %4, -1
  %6 = getelementptr inbounds i8, ptr %3, i64 8
  %7 = load ptr, ptr %6, align 8
  br label %8

8:                                                ; preds = %20, %.lr.ph.i
  %.01523.i = phi i32 [ 0, %.lr.ph.i ], [ %.1.i, %20 ]
  %.01622.i = phi i32 [ %5, %.lr.ph.i ], [ %.117.i, %20 ]
  %9 = add i32 %.01622.i, %.01523.i
  %10 = lshr i32 %9, 1
  %11 = zext nneg i32 %10 to i64
  %12 = getelementptr inbounds i32, ptr %7, i64 %11
  %13 = load i32, ptr %12, align 4
  %14 = icmp slt i32 %13, %1
  br i1 %14, label %15, label %17

15:                                               ; preds = %8
  %16 = add nuw nsw i32 %10, 1
  br label %20

17:                                               ; preds = %8
  %.not19.i = icmp sgt i32 %13, %1
  br i1 %.not19.i, label %18, label %_ZNK17GrowableArrayViewIiE11find_sortedIiTnPFiRKT_RKiEXadL_ZN19ciConstantPoolCache11key_compareES6_S6_EEEEiS4_Rb.exit

18:                                               ; preds = %17
  %19 = add nsw i32 %10, -1
  br label %20

20:                                               ; preds = %18, %15
  %.117.i = phi i32 [ %.01622.i, %15 ], [ %19, %18 ]
  %.1.i = phi i32 [ %16, %15 ], [ %.01523.i, %18 ]
  %.not.i = icmp slt i32 %.117.i, %.1.i
  br i1 %.not.i, label %_ZNK17GrowableArrayViewIiE11find_sortedIiTnPFiRKT_RKiEXadL_ZN19ciConstantPoolCache11key_compareES6_S6_EEEEiS4_Rb.exit.thread, label %8, !llvm.loop !6

_ZNK17GrowableArrayViewIiE11find_sortedIiTnPFiRKT_RKiEXadL_ZN19ciConstantPoolCache11key_compareES6_S6_EEEEiS4_Rb.exit: ; preds = %17
  %21 = getelementptr inbounds i8, ptr %0, i64 8
  %22 = load ptr, ptr %21, align 8
  %23 = getelementptr inbounds i8, ptr %22, i64 8
  %24 = load ptr, ptr %23, align 8
  %25 = getelementptr inbounds ptr, ptr %24, i64 %11
  %26 = load ptr, ptr %25, align 8
  br label %_ZNK17GrowableArrayViewIiE11find_sortedIiTnPFiRKT_RKiEXadL_ZN19ciConstantPoolCache11key_compareES6_S6_EEEEiS4_Rb.exit.thread

_ZNK17GrowableArrayViewIiE11find_sortedIiTnPFiRKT_RKiEXadL_ZN19ciConstantPoolCache11key_compareES6_S6_EEEEiS4_Rb.exit.thread: ; preds = %20, %2, %_ZNK17GrowableArrayViewIiE11find_sortedIiTnPFiRKT_RKiEXadL_ZN19ciConstantPoolCache11key_compareES6_S6_EEEEiS4_Rb.exit
  %.0 = phi ptr [ %26, %_ZNK17GrowableArrayViewIiE11find_sortedIiTnPFiRKT_RKiEXadL_ZN19ciConstantPoolCache11key_compareES6_S6_EEEEiS4_Rb.exit ], [ null, %2 ], [ null, %20 ]
  ret ptr %.0
}